; Function Attrs: null_pointer_is_valid sspstrong uwtable
define internal i32 @dissect_ICBAAccoMgt_put_PingFactor_rqst(ptr noundef %0, i32 noundef %1, ptr noundef %2, ptr noundef %3, ptr noundef %4, ptr noundef %5) #0 {
  %7 = alloca i16, align 2
  call void @llvm.lifetime.start.p0(i64 2, ptr nonnull %7) #12
  %8 = tail call i32 @dissect_dcom_this(ptr noundef %0, i32 noundef %1, ptr noundef %2, ptr noundef %3, ptr noundef %4, ptr noundef %5)
  %9 = load i32, ptr @hf_cba_acco_ping_factor, align 4
  %10 = call i32 @dissect_ndr_uint16(ptr noundef %0, i32 noundef %8, ptr noundef %2, ptr noundef %3, ptr noundef %4, ptr noundef %5, i32 noundef %9, ptr noundef nonnull %7)
  %11 = getelementptr inbounds nuw i8, ptr %2, i64 8
  %12 = load ptr, ptr %11, align 8
  %13 = load i16, ptr %7, align 2
  %14 = zext i16 %13 to i32
  call void (ptr, i32, ptr, ...) @col_append_fstr(ptr noundef %12, i32 noundef 25, ptr noundef nonnull @.str.273, i32 noundef %14)
  call void @llvm.lifetime.end.p0(i64 2, ptr nonnull %7) #12
  ret i32 %10
}